; Function Attrs: mustprogress uwtable
define noundef nonnull align 8 dereferenceable(8) ptr @_ZN3netlsERSoRKNS_17PacketNumberQueueE(ptr noundef nonnull returned align 8 dereferenceable(8) %0, ptr noundef nonnull readonly align 8 captures(address) dereferenceable(48) %1) local_unnamed_addr #3 {
  %3 = getelementptr inbounds nuw i8, ptr %1, i64 24
  %4 = load ptr, ptr %3, align 8, !tbaa !128
  %5 = getelementptr inbounds nuw i8, ptr %1, i64 8
  %.not13 = icmp eq ptr %4, %5
  br i1 %.not13, label %._crit_edge17, label %.lr.ph16

._crit_edge17:                                    ; preds = %._crit_edge, %2
  ret ptr %0

.lr.ph16:                                         ; preds = %2, %._crit_edge
  %.sroa.09.014 = phi ptr [ %11, %._crit_edge ], [ %4, %2 ]
  %6 = getelementptr inbounds nuw i8, ptr %.sroa.09.014, i64 32
  %7 = load i64, ptr %6, align 8, !tbaa !76
  %8 = getelementptr inbounds nuw i8, ptr %.sroa.09.014, i64 40
  %9 = load i64, ptr %8, align 8, !tbaa !76
  %10 = icmp ult i64 %7, %9
  br i1 %10, label %.lr.ph, label %._crit_edge

._crit_edge:                                      ; preds = %.lr.ph, %.lr.ph16
  %11 = tail call noundef ptr @_ZSt18_Rb_tree_incrementPKSt18_Rb_tree_node_base(ptr noundef nonnull %.sroa.09.014) #32
  %.not = icmp eq ptr %11, %5
  br i1 %.not, label %._crit_edge17, label %.lr.ph16

.lr.ph:                                           ; preds = %.lr.ph16, %.lr.ph
  %.012 = phi i64 [ %14, %.lr.ph ], [ %7, %.lr.ph16 ]
  %12 = tail call noundef nonnull align 8 dereferenceable(8) ptr @_ZNSo9_M_insertImEERSoT_(ptr noundef nonnull align 8 dereferenceable(8) %0, i64 noundef %.012)
  %13 = tail call noundef nonnull align 8 dereferenceable(8) ptr @_ZSt16__ostream_insertIcSt11char_traitsIcEERSt13basic_ostreamIT_T0_ES6_PKS3_l(ptr noundef nonnull align 8 dereferenceable(8) %12, ptr noundef nonnull @.str.22, i64 noundef 1)
  %14 = add nuw i64 %.012, 1
  %15 = load i64, ptr %8, align 8, !tbaa !76
  %16 = icmp ult i64 %14, %15
  br i1 %16, label %.lr.ph, label %._crit_edge, !llvm.loop !186
}